target datalayout = "e-m:e-p270:32:32-p271:32:32-p272:64:64-i64:64-i128:128-f80:128-n8:16:32:64-S128"
target triple = "x86_64-pc-linux-gnu"

%"class.sat::ddfw" = type <{ %"struct.sat::ddfw::config", %class.reslimit, %class.vector.1, %class.svector.2, %class.svector.4, %class.svector.6, %class.svector.6, %class.svector.8, i32, [4 x i8], %class.vector.10, %class.svector.11, %class.svector.11, i32, i32, i32, [4 x i8], %class.indexed_uint_set, %class.indexed_uint_set, %class.random_gen, [4 x i8], i64, i32, i32, i32, i32, i64, i64, i64, i64, i64, i32, i32, %class.u_map, %class.stopwatch, %class.svector.11, i8, [7 x i8], %class.scoped_ptr, %"class.std::function", i32, [4 x i8], %class.tracked_uint_set, %class.svector.11, i8, i8, [6 x i8] }>
%"struct.sat::ddfw::config" = type { i32, i32, i32, i32, i32, i32, double }
%class.reslimit = type { %"struct.std::atomic", i8, i64, i64, %class.svector, %class.ptr_vector }
%"struct.std::atomic" = type { %"struct.std::__atomic_base" }
%"struct.std::__atomic_base" = type { i32 }
%class.svector = type { %class.vector }
%class.vector = type { ptr }
%class.ptr_vector = type { %class.vector.0 }
%class.vector.0 = type { ptr }
%class.vector.1 = type { ptr }
%class.svector.2 = type { %class.vector.3 }
%class.vector.3 = type { ptr }
%class.svector.4 = type { %class.vector.5 }
%class.vector.5 = type { ptr }
%class.svector.6 = type { %class.vector.7 }
%class.vector.7 = type { ptr }
%class.svector.8 = type { %class.vector.9 }
%class.vector.9 = type { ptr }
%class.vector.10 = type { ptr }
%class.indexed_uint_set = type { i32, %class.svector.11, %class.svector.11 }
%class.random_gen = type { i32 }
%class.u_map = type { %class.map }
%class.map = type { %class.table2map }
%class.table2map = type { %class.core_hashtable }
%class.core_hashtable = type <{ ptr, i32, i32, i32, [4 x i8] }>
%class.stopwatch = type <{ %"class.std::chrono::time_point", %"class.std::chrono::duration", i8, [7 x i8] }>
%"class.std::chrono::time_point" = type { %"class.std::chrono::duration" }
%"class.std::chrono::duration" = type { i64 }
%class.scoped_ptr = type { ptr }
%"class.std::function" = type { %"class.std::_Function_base", ptr }
%"class.std::_Function_base" = type { %"union.std::_Any_data", ptr }
%"union.std::_Any_data" = type { %"union.std::_Nocopy_types" }
%"union.std::_Nocopy_types" = type { { i64, i64 } }
%class.tracked_uint_set = type { %class.svector.13, %class.svector.11 }
%class.svector.13 = type { %class.vector.14 }
%class.vector.14 = type { ptr }
%class.svector.11 = type { %class.vector.12 }
%class.vector.12 = type { ptr }
%"struct.sat::ddfw::var_info" = type { i8, double, double, i32, i32, %class.ema }
%class.ema = type { double, double, double, i32, i32 }

; Function Attrs: mustprogress nounwind uwtable
define linkonce_odr hidden noundef nonnull align 8 dereferenceable(64) ptr @_ZN6vectorIN3sat4ddfw8var_infoELb0EjEixEj(ptr noundef nonnull align 8 dereferenceable(8) %0, i32 noundef %1) #4 comdat align 2 {
  %3 = alloca ptr, align 8
  %4 = alloca i32, align 4
  store ptr %0, ptr %3, align 8, !tbaa !29
  store i32 %1, ptr %4, align 4, !tbaa !37
  %5 = load ptr, ptr %3, align 8
  %6 = getelementptr inbounds nuw %class.vector.5, ptr %5, i32 0, i32 0
  %7 = load ptr, ptr %6, align 8, !tbaa !174
  %8 = load i32, ptr %4, align 4, !tbaa !37
  %9 = zext i32 %8 to i64
  %10 = getelementptr inbounds nuw %"struct.sat::ddfw::var_info", ptr %7, i64 %9
  ret ptr %10
}

; Function Attrs: mustprogress nounwind uwtable
define linkonce_odr hidden noundef i32 @_ZNK6vectorIN3sat4ddfw8var_infoELb0EjE4sizeEv(ptr noundef nonnull align 8 dereferenceable(8) %0) #4 comdat align 2 {
  %2 = alloca i32, align 4
  %3 = alloca ptr, align 8
  store ptr %0, ptr %3, align 8, !tbaa !29
  %4 = load ptr, ptr %3, align 8
  %5 = getelementptr inbounds nuw %class.vector.5, ptr %4, i32 0, i32 0
  %6 = load ptr, ptr %5, align 8, !tbaa !174
  %7 = icmp eq ptr %6, null
  br i1 %7, label %8, label %9

8:                                                ; preds = %1
  store i32 0, ptr %2, align 4
  br label %14

9:                                                ; preds = %1
  %10 = getelementptr inbounds nuw %class.vector.5, ptr %4, i32 0, i32 0
  %11 = load ptr, ptr %10, align 8, !tbaa !174
  %12 = getelementptr inbounds i32, ptr %11, i64 -1
  %13 = load i32, ptr %12, align 4, !tbaa !37
  store i32 %13, ptr %2, align 4
  br label %14

14:                                               ; preds = %9, %8
  %15 = load i32, ptr %2, align 4
  ret i32 %15
}

; Function Attrs: inlinehint mustprogress uwtable
define linkonce_odr hidden noundef nonnull align 1 dereferenceable(1) ptr @_ZN3sat4ddfw5valueEj(ptr noundef nonnull align 8 dereferenceable(434) %0, i32 noundef %1) #9 comdat align 2 {
  %3 = alloca ptr, align 8
  %4 = alloca i32, align 4
  store ptr %0, ptr %3, align 8, !tbaa !3
  store i32 %1, ptr %4, align 4, !tbaa !37
  %5 = load ptr, ptr %3, align 8
  %6 = getelementptr inbounds nuw %"class.sat::ddfw", ptr %5, i32 0, i32 4
  %7 = load i32, ptr %4, align 4, !tbaa !37
  %8 = call noundef nonnull align 8 dereferenceable(64) ptr @_ZN6vectorIN3sat4ddfw8var_infoELb0EjEixEj(ptr noundef nonnull align 8 dereferenceable(8) %6, i32 noundef %7)
  %9 = getelementptr inbounds nuw %"struct.sat::ddfw::var_info", ptr %8, i32 0, i32 0
  ret ptr %9
}

; Function Attrs: mustprogress nounwind uwtable
define linkonce_odr hidden noundef i32 @_ZN10random_genclEv(ptr noundef nonnull align 4 dereferenceable(4) %0) #4 comdat align 2 {
  %2 = alloca ptr, align 8
  store ptr %0, ptr %2, align 8, !tbaa !152
  %3 = load ptr, ptr %2, align 8
  %4 = getelementptr inbounds nuw %class.random_gen, ptr %3, i32 0, i32 0
  %5 = load i32, ptr %4, align 4, !tbaa !164
  %6 = zext i32 %5 to i64
  %7 = mul nsw i64 %6, 214013
  %8 = add nsw i64 %7, 2531011
  %9 = trunc i64 %8 to i32
  %10 = getelementptr inbounds nuw %class.random_gen, ptr %3, i32 0, i32 0
  store i32 %9, ptr %10, align 4, !tbaa !164
  %11 = lshr i32 %9, 16
  %12 = and i32 %11, 32767
  ret i32 %12
}

; Function Attrs: inlinehint mustprogress uwtable
define linkonce_odr hidden noundef nonnull align 4 dereferenceable(4) ptr @_ZN3sat4ddfw4biasEj(ptr noundef nonnull align 8 dereferenceable(434) %0, i32 noundef %1) #9 comdat align 2 {
  %3 = alloca ptr, align 8
  %4 = alloca i32, align 4
  store ptr %0, ptr %3, align 8, !tbaa !3
  store i32 %1, ptr %4, align 4, !tbaa !37
  %5 = load ptr, ptr %3, align 8
  %6 = getelementptr inbounds nuw %"class.sat::ddfw", ptr %5, i32 0, i32 4
  %7 = load i32, ptr %4, align 4, !tbaa !37
  %8 = call noundef nonnull align 8 dereferenceable(64) ptr @_ZN6vectorIN3sat4ddfw8var_infoELb0EjEixEj(ptr noundef nonnull align 8 dereferenceable(8) %6, i32 noundef %7)
  %9 = getelementptr inbounds nuw %"struct.sat::ddfw::var_info", ptr %8, i32 0, i32 4
  ret ptr %9
}

; Function Attrs: inlinehint mustprogress uwtable
define linkonce_odr hidden noundef i32 @_ZNK3sat4ddfw8num_varsEv(ptr noundef nonnull align 8 dereferenceable(434) %0) #9 comdat align 2 {
  %2 = alloca ptr, align 8
  store ptr %0, ptr %2, align 8, !tbaa !3
  %3 = load ptr, ptr %2, align 8
  %4 = getelementptr inbounds nuw %"class.sat::ddfw", ptr %3, i32 0, i32 4
  %5 = call noundef i32 @_ZNK6vectorIN3sat4ddfw8var_infoELb0EjE4sizeEv(ptr noundef nonnull align 8 dereferenceable(8) %4)
  ret i32 %5
}

; Function Attrs: mustprogress uwtable
define hidden void @_ZN3sat4ddfw13reinit_valuesEv(ptr noundef nonnull align 8 dereferenceable(434) %0) #6 align 2 {
  %2 = alloca ptr, align 8
  %3 = alloca i32, align 4
  %4 = alloca i32, align 4
  store ptr %0, ptr %2, align 8, !tbaa !3
  %5 = load ptr, ptr %2, align 8
  call void @llvm.lifetime.start.p0(i64 4, ptr %3) #3
  store i32 0, ptr %3, align 4, !tbaa !37
  br label %6

6:                                                ; preds = %39, %1
  %7 = load i32, ptr %3, align 4, !tbaa !37
  %8 = call noundef i32 @_ZNK3sat4ddfw8num_varsEv(ptr noundef nonnull align 8 dereferenceable(434) %5)
  %9 = icmp ult i32 %7, %8
  br i1 %9, label %11, label %10

10:                                               ; preds = %6
  call void @llvm.lifetime.end.p0(i64 4, ptr %3) #3
  br label %42

11:                                               ; preds = %6
  call void @llvm.lifetime.start.p0(i64 4, ptr %4) #3
  %12 = load i32, ptr %3, align 4, !tbaa !37
  %13 = call noundef nonnull align 4 dereferenceable(4) ptr @_ZN3sat4ddfw4biasEj(ptr noundef nonnull align 8 dereferenceable(434) %5, i32 noundef %12)
  %14 = load i32, ptr %13, align 4, !tbaa !37
  store i32 %14, ptr %4, align 4, !tbaa !37
  %15 = getelementptr inbounds nuw %"class.sat::ddfw", ptr %5, i32 0, i32 19
  %16 = call noundef i32 @_ZN10random_genclEv(ptr noundef nonnull align 4 dereferenceable(4) %15)
  %17 = load i32, ptr %4, align 4, !tbaa !37
  %18 = call i32 @llvm.abs.i32(i32 %17, i1 true)
  %19 = add nsw i32 1, %18
  %20 = srem i32 %16, %19
  %21 = icmp eq i32 0, %20
  br i1 %21, label %22, label %30

22:                                               ; preds = %11
  %23 = getelementptr inbounds nuw %"class.sat::ddfw", ptr %5, i32 0, i32 19
  %24 = call noundef i32 @_ZN10random_genclEv(ptr noundef nonnull align 4 dereferenceable(4) %23)
  %25 = srem i32 %24, 2
  %26 = icmp eq i32 %25, 0
  %27 = load i32, ptr %3, align 4, !tbaa !37
  %28 = call noundef nonnull align 1 dereferenceable(1) ptr @_ZN3sat4ddfw5valueEj(ptr noundef nonnull align 8 dereferenceable(434) %5, i32 noundef %27)
  %29 = zext i1 %26 to i8
  store i8 %29, ptr %28, align 1, !tbaa !94
  br label %38

30:                                               ; preds = %11
  %31 = load i32, ptr %3, align 4, !tbaa !37
  %32 = call noundef nonnull align 4 dereferenceable(4) ptr @_ZN3sat4ddfw4biasEj(ptr noundef nonnull align 8 dereferenceable(434) %5, i32 noundef %31)
  %33 = load i32, ptr %32, align 4, !tbaa !37
  %34 = icmp sgt i32 %33, 0
  %35 = load i32, ptr %3, align 4, !tbaa !37
  %36 = call noundef nonnull align 1 dereferenceable(1) ptr @_ZN3sat4ddfw5valueEj(ptr noundef nonnull align 8 dereferenceable(434) %5, i32 noundef %35)
  %37 = zext i1 %34 to i8
  store i8 %37, ptr %36, align 1, !tbaa !94
  br label %38

38:                                               ; preds = %30, %22
  call void @llvm.lifetime.end.p0(i64 4, ptr %4) #3
  br label %39

39:                                               ; preds = %38
  %40 = load i32, ptr %3, align 4, !tbaa !37
  %41 = add i32 %40, 1
  store i32 %41, ptr %3, align 4, !tbaa !37
  br label %6, !llvm.loop !187

42:                                               ; preds = %10
  ret void
}