; Function Attrs: mustprogress nofree norecurse nosync nounwind memory(readwrite, inaccessiblemem: none) uwtable
define hidden void @_ZN3sat4ddfw13reinit_valuesEv(ptr noundef nonnull align 8 captures(none) dereferenceable(434) %0) local_unnamed_addr #13 align 2 {
  %2 = getelementptr inbounds nuw i8, ptr %0, i64 88
  %3 = load ptr, ptr %2, align 8, !tbaa !34
  %4 = icmp eq ptr %3, null
  %5 = getelementptr inbounds i8, ptr %3, i64 -4
  %6 = getelementptr inbounds nuw i8, ptr %0, i64 216
  br i1 %4, label %.split8, label %.split

.split:                                           ; preds = %1
  %7 = load i32, ptr %5, align 4, !tbaa !26
  %.not = icmp eq i32 %7, 0
  br i1 %.not, label %.split8, label %.lr.ph.preheader

.lr.ph.preheader:                                 ; preds = %.split
  %.pre = load i32, ptr %6, align 8, !tbaa !87
  br label %.lr.ph

.split8:                                          ; preds = %_ZNK3sat4ddfw8num_varsEv.exit, %1, %.split
  ret void

.lr.ph:                                           ; preds = %.lr.ph.preheader, %_ZNK3sat4ddfw8num_varsEv.exit
  %8 = phi i32 [ %.pre, %.lr.ph.preheader ], [ %30, %_ZNK3sat4ddfw8num_varsEv.exit ]
  %indvars.iv = phi i64 [ 0, %.lr.ph.preheader ], [ %indvars.iv.next, %_ZNK3sat4ddfw8num_varsEv.exit ]
  %9 = getelementptr inbounds nuw %"struct.sat::ddfw::var_info", ptr %3, i64 %indvars.iv, i32 4
  %10 = load i32, ptr %9, align 4, !tbaa !26
  %11 = mul i32 %8, 214013
  %12 = add i32 %11, 2531011
  store i32 %12, ptr %6, align 8, !tbaa !87
  %13 = lshr i32 %12, 16
  %14 = and i32 %13, 32767
  %15 = tail call i32 @llvm.abs.i32(i32 %10, i1 true)
  %16 = add nuw nsw i32 %15, 1
  %17 = urem i32 %14, %16
  %18 = icmp eq i32 %17, 0
  br i1 %18, label %19, label %26

19:                                               ; preds = %.lr.ph
  %20 = mul i32 %12, 214013
  %21 = add i32 %20, 2531011
  store i32 %21, ptr %6, align 8, !tbaa !87
  %22 = lshr i32 %21, 16
  %23 = trunc i32 %22 to i8
  %24 = and i8 %23, 1
  %25 = xor i8 %24, 1
  br label %_ZNK3sat4ddfw8num_varsEv.exit

26:                                               ; preds = %.lr.ph
  %27 = load i32, ptr %9, align 4, !tbaa !26
  %28 = icmp sgt i32 %27, 0
  %29 = zext i1 %28 to i8
  br label %_ZNK3sat4ddfw8num_varsEv.exit

_ZNK3sat4ddfw8num_varsEv.exit:                    ; preds = %26, %19
  %30 = phi i32 [ %21, %19 ], [ %12, %26 ]
  %.sink = phi i8 [ %25, %19 ], [ %29, %26 ]
  %31 = getelementptr inbounds nuw %"struct.sat::ddfw::var_info", ptr %3, i64 %indvars.iv
  store i8 %.sink, ptr %31, align 1, !tbaa !89
  %indvars.iv.next = add nuw nsw i64 %indvars.iv, 1
  %32 = load i32, ptr %5, align 4, !tbaa !26
  %33 = zext i32 %32 to i64
  %34 = icmp samesign ult i64 %indvars.iv.next, %33
  br i1 %34, label %.lr.ph, label %.split8, !llvm.loop !102
}